target datalayout = "e-m:e-p270:32:32-p271:32:32-p272:64:64-i64:64-i128:128-f80:128-n8:16:32:64-S128"
target triple = "x86_64-pc-linux-gnu"

%struct.lua_State = type { %struct.GCRef, i8, i8, i8, i8, %struct.MRef, %struct.GCRef, ptr, ptr, %struct.MRef, %struct.MRef, %struct.GCRef, %struct.GCRef, ptr, i32 }
%struct.MRef = type { i64 }
%struct.GCRef = type { i64 }
%struct.global_State = type { ptr, ptr, %struct.GCState, %struct.GCstr, i8, i8, i8, i8, %struct.StrInternState, i32, %struct.GCRef, %struct.SBuf, %union.TValue, %union.TValue, %struct.Node, %union.TValue, %struct.GCupval, i32, i32, ptr, ptr, ptr, i32, i32, %struct.GCRef, %struct.MRef, %struct.MRef, %struct.PRNGState, [39 x %struct.GCRef] }
%struct.GCState = type { i64, i64, i8, i8, i8, i8, i32, %struct.GCRef, %struct.MRef, %struct.GCRef, %struct.GCRef, %struct.GCRef, %struct.GCRef, i64, i64, i32, i32, %struct.MRef }
%struct.GCstr = type { %struct.GCRef, i8, i8, i8, i8, i32, i32, i32 }
%struct.StrInternState = type { ptr, i32, i32, i32, i8, i8, i8, i8, i64 }
%struct.SBuf = type { ptr, ptr, ptr, %struct.MRef }
%struct.Node = type { %union.TValue, %union.TValue, %struct.MRef }
%union.TValue = type { i64 }
%struct.GCupval = type { %struct.GCRef, i8, i8, i8, i8, %union.anon, %struct.MRef, i32 }
%union.anon = type { %struct.anon.1 }
%struct.anon.1 = type { %struct.GCRef, %struct.GCRef }
%struct.PRNGState = type { [4 x i64] }
%struct.GCfuncL = type { %struct.GCRef, i8, i8, i8, i8, %struct.GCRef, %struct.GCRef, %struct.MRef, [1 x %struct.GCRef] }
%struct.GCproto = type { %struct.GCRef, i8, i8, i8, i8, i32, i32, %struct.GCRef, %struct.MRef, %struct.MRef, i32, i32, i32, i8, i8, i16, %struct.GCRef, i32, i32, %struct.MRef, %struct.MRef, %struct.MRef }

; Function Attrs: nounwind uwtable
define internal i32 @cur_topslot(ptr noundef %0, ptr noundef %1, i32 noundef %2) #0 {
  %4 = alloca i32, align 4
  %5 = alloca ptr, align 8
  %6 = alloca ptr, align 8
  %7 = alloca i32, align 4
  %8 = alloca i32, align 4
  %9 = alloca i32, align 4
  store ptr %0, ptr %5, align 8, !tbaa !66
  store ptr %1, ptr %6, align 8, !tbaa !78
  store i32 %2, ptr %7, align 4, !tbaa !10
  call void @llvm.lifetime.start.p0(i64 4, ptr %8) #7
  %10 = load ptr, ptr %6, align 8, !tbaa !78
  %11 = getelementptr inbounds i32, ptr %10, i64 -1
  %12 = load i32, ptr %11, align 4, !tbaa !10
  store i32 %12, ptr %8, align 4, !tbaa !10
  %13 = load i32, ptr %8, align 4, !tbaa !10
  %14 = and i32 %13, 255
  %15 = icmp eq i32 %14, 50
  br i1 %15, label %16, label %24

16:                                               ; preds = %3
  %17 = load ptr, ptr %6, align 8, !tbaa !78
  %18 = load i32, ptr %8, align 4, !tbaa !10
  %19 = lshr i32 %18, 16
  %20 = zext i32 %19 to i64
  %21 = sub nsw i64 %20, 32768
  %22 = getelementptr inbounds i32, ptr %17, i64 %21
  %23 = load i32, ptr %22, align 4, !tbaa !10
  store i32 %23, ptr %8, align 4, !tbaa !10
  br label %24

24:                                               ; preds = %16, %3
  %25 = load i32, ptr %8, align 4, !tbaa !10
  %26 = and i32 %25, 255
  switch i32 %26, label %57 [
    i32 65, label %27
    i32 67, label %27
    i32 73, label %40
    i32 63, label %50
  ]

27:                                               ; preds = %24, %24
  %28 = load i32, ptr %8, align 4, !tbaa !10
  %29 = lshr i32 %28, 8
  %30 = and i32 %29, 255
  %31 = load i32, ptr %8, align 4, !tbaa !10
  %32 = lshr i32 %31, 16
  %33 = and i32 %32, 255
  %34 = add i32 %30, %33
  %35 = load i32, ptr %7, align 4, !tbaa !10
  %36 = add i32 %34, %35
  %37 = sub i32 %36, 1
  %38 = add i32 %37, 1
  %39 = add i32 %38, 1
  store i32 %39, ptr %4, align 4
  store i32 1, ptr %9, align 4
  br label %62

40:                                               ; preds = %24
  %41 = load i32, ptr %8, align 4, !tbaa !10
  %42 = lshr i32 %41, 8
  %43 = and i32 %42, 255
  %44 = load i32, ptr %8, align 4, !tbaa !10
  %45 = lshr i32 %44, 16
  %46 = add i32 %43, %45
  %47 = load i32, ptr %7, align 4, !tbaa !10
  %48 = add i32 %46, %47
  %49 = sub i32 %48, 1
  store i32 %49, ptr %4, align 4
  store i32 1, ptr %9, align 4
  br label %62

50:                                               ; preds = %24
  %51 = load i32, ptr %8, align 4, !tbaa !10
  %52 = lshr i32 %51, 8
  %53 = and i32 %52, 255
  %54 = load i32, ptr %7, align 4, !tbaa !10
  %55 = add i32 %53, %54
  %56 = sub i32 %55, 1
  store i32 %56, ptr %4, align 4
  store i32 1, ptr %9, align 4
  br label %62

57:                                               ; preds = %24
  %58 = load ptr, ptr %5, align 8, !tbaa !66
  %59 = getelementptr inbounds nuw %struct.GCproto, ptr %58, i32 0, i32 4
  %60 = load i8, ptr %59, align 1, !tbaa !90
  %61 = zext i8 %60 to i32
  store i32 %61, ptr %4, align 4
  store i32 1, ptr %9, align 4
  br label %62

62:                                               ; preds = %57, %50, %40, %27
  call void @llvm.lifetime.end.p0(i64 4, ptr %8) #7
  %63 = load i32, ptr %4, align 4
  ret i32 %63
}

; Function Attrs: nounwind uwtable
define hidden void @lj_dispatch_profile(ptr noundef %0, ptr noundef %1) #0 {
  %3 = alloca ptr, align 8
  %4 = alloca ptr, align 8
  %5 = alloca i32, align 4
  %6 = alloca ptr, align 8
  %7 = alloca ptr, align 8
  %8 = alloca ptr, align 8
  %9 = alloca ptr, align 8
  %10 = alloca ptr, align 8
  store ptr %0, ptr %3, align 8, !tbaa !61
  store ptr %1, ptr %4, align 8, !tbaa !78
  call void @llvm.lifetime.start.p0(i64 4, ptr %5) #7
  %11 = call ptr @__errno_location() #9
  %12 = load i32, ptr %11, align 4, !tbaa !10
  store i32 %12, ptr %5, align 4, !tbaa !10
  call void @llvm.lifetime.start.p0(i64 8, ptr %6) #7
  %13 = load ptr, ptr %3, align 8, !tbaa !61
  %14 = getelementptr inbounds nuw %struct.lua_State, ptr %13, i32 0, i32 7
  %15 = load ptr, ptr %14, align 8, !tbaa !63
  %16 = getelementptr inbounds %union.TValue, ptr %15, i64 -2
  %17 = getelementptr inbounds nuw %struct.GCRef, ptr %16, i32 0, i32 0
  %18 = load i64, ptr %17, align 8, !tbaa !54
  %19 = and i64 %18, 140737488355327
  %20 = inttoptr i64 %19 to ptr
  store ptr %20, ptr %6, align 8, !tbaa !82
  call void @llvm.lifetime.start.p0(i64 8, ptr %7) #7
  %21 = load ptr, ptr %6, align 8, !tbaa !82
  %22 = getelementptr inbounds nuw %struct.GCfuncL, ptr %21, i32 0, i32 7
  %23 = getelementptr inbounds nuw %struct.MRef, ptr %22, i32 0, i32 0
  %24 = load i64, ptr %23, align 8, !tbaa !54
  %25 = inttoptr i64 %24 to ptr
  %26 = getelementptr inbounds i8, ptr %25, i64 -104
  store ptr %26, ptr %7, align 8, !tbaa !66
  call void @llvm.lifetime.start.p0(i64 8, ptr %8) #7
  %27 = load ptr, ptr %3, align 8, !tbaa !61
  %28 = getelementptr inbounds nuw %struct.lua_State, ptr %27, i32 0, i32 13
  %29 = load ptr, ptr %28, align 8, !tbaa !83
  %30 = ptrtoint ptr %29 to i64
  %31 = and i64 %30, -4
  %32 = inttoptr i64 %31 to ptr
  store ptr %32, ptr %8, align 8, !tbaa !9
  call void @llvm.lifetime.start.p0(i64 8, ptr %9) #7
  %33 = load ptr, ptr %8, align 8, !tbaa !9
  %34 = getelementptr inbounds i8, ptr %33, i64 24
  %35 = getelementptr inbounds nuw %struct.MRef, ptr %34, i32 0, i32 0
  %36 = load i64, ptr %35, align 8, !tbaa !84
  %37 = inttoptr i64 %36 to ptr
  store ptr %37, ptr %9, align 8, !tbaa !78
  call void @llvm.lifetime.start.p0(i64 8, ptr %10) #7
  %38 = load ptr, ptr %4, align 8, !tbaa !78
  %39 = ptrtoint ptr %38 to i64
  %40 = load ptr, ptr %8, align 8, !tbaa !9
  %41 = getelementptr inbounds i8, ptr %40, i64 24
  %42 = getelementptr inbounds nuw %struct.MRef, ptr %41, i32 0, i32 0
  store i64 %39, ptr %42, align 8, !tbaa !84
  %43 = load ptr, ptr %3, align 8, !tbaa !61
  %44 = getelementptr inbounds nuw %struct.lua_State, ptr %43, i32 0, i32 7
  %45 = load ptr, ptr %44, align 8, !tbaa !63
  %46 = load ptr, ptr %7, align 8, !tbaa !66
  %47 = load ptr, ptr %4, align 8, !tbaa !78
  %48 = load ptr, ptr %8, align 8, !tbaa !9
  %49 = getelementptr inbounds i8, ptr %48, i64 0
  %50 = load i32, ptr %49, align 4, !tbaa !10
  %51 = lshr i32 %50, 0
  %52 = call i32 @cur_topslot(ptr noundef %46, ptr noundef %47, i32 noundef %51)
  %53 = zext i32 %52 to i64
  %54 = getelementptr inbounds nuw %union.TValue, ptr %45, i64 %53
  %55 = load ptr, ptr %3, align 8, !tbaa !61
  %56 = getelementptr inbounds nuw %struct.lua_State, ptr %55, i32 0, i32 8
  store ptr %54, ptr %56, align 8, !tbaa !64
  %57 = load ptr, ptr %3, align 8, !tbaa !61
  call void @lj_profile_interpreter(ptr noundef %57)
  %58 = load ptr, ptr %9, align 8, !tbaa !78
  %59 = ptrtoint ptr %58 to i64
  %60 = load ptr, ptr %8, align 8, !tbaa !9
  %61 = getelementptr inbounds i8, ptr %60, i64 24
  %62 = getelementptr inbounds nuw %struct.MRef, ptr %61, i32 0, i32 0
  store i64 %59, ptr %62, align 8, !tbaa !84
  %63 = load ptr, ptr %3, align 8, !tbaa !61
  %64 = getelementptr inbounds nuw %struct.lua_State, ptr %63, i32 0, i32 5
  %65 = getelementptr inbounds nuw %struct.MRef, ptr %64, i32 0, i32 0
  %66 = load i64, ptr %65, align 8, !tbaa !62
  %67 = inttoptr i64 %66 to ptr
  store ptr %67, ptr %10, align 8, !tbaa !48
  %68 = load ptr, ptr %3, align 8, !tbaa !61
  %69 = ptrtoint ptr %68 to i64
  %70 = load ptr, ptr %10, align 8, !tbaa !48
  %71 = getelementptr inbounds nuw %struct.global_State, ptr %70, i32 0, i32 24
  %72 = getelementptr inbounds nuw %struct.GCRef, ptr %71, i32 0, i32 0
  store i64 %69, ptr %72, align 8, !tbaa !96
  %73 = load ptr, ptr %10, align 8, !tbaa !48
  %74 = getelementptr inbounds nuw %struct.global_State, ptr %73, i32 0, i32 9
  store volatile i32 -1, ptr %74, align 8, !tbaa !101
  %75 = load i32, ptr %5, align 4, !tbaa !10
  %76 = call ptr @__errno_location() #9
  store i32 %75, ptr %76, align 4, !tbaa !10
  call void @llvm.lifetime.end.p0(i64 8, ptr %10) #7
  call void @llvm.lifetime.end.p0(i64 8, ptr %9) #7
  call void @llvm.lifetime.end.p0(i64 8, ptr %8) #7
  call void @llvm.lifetime.end.p0(i64 8, ptr %7) #7
  call void @llvm.lifetime.end.p0(i64 8, ptr %6) #7
  call void @llvm.lifetime.end.p0(i64 4, ptr %5) #7
  ret void
}