; Function Attrs: nounwind uwtable
define hidden void @lj_dispatch_profile(ptr noundef initializes((40, 48)) %0, ptr noundef %1) local_unnamed_addr #4 {
  %3 = tail call ptr @__errno_location() #13
  %4 = load i32, ptr %3, align 4, !tbaa !44
  %5 = getelementptr inbounds nuw i8, ptr %0, i64 32
  %6 = load ptr, ptr %5, align 8, !tbaa !55
  %7 = getelementptr inbounds i8, ptr %6, i64 -16
  %8 = load i64, ptr %7, align 8, !tbaa !56
  %9 = and i64 %8, 140737488355327
  %10 = inttoptr i64 %9 to ptr
  %11 = getelementptr inbounds nuw i8, ptr %10, i64 32
  %12 = load i64, ptr %11, align 8, !tbaa !56
  %13 = inttoptr i64 %12 to ptr
  %14 = getelementptr inbounds nuw i8, ptr %0, i64 80
  %15 = load ptr, ptr %14, align 8, !tbaa !69
  %16 = ptrtoint ptr %15 to i64
  %17 = and i64 %16, -4
  %18 = inttoptr i64 %17 to ptr
  %19 = getelementptr inbounds nuw i8, ptr %18, i64 24
  %20 = load i64, ptr %19, align 8, !tbaa !70
  %21 = ptrtoint ptr %1 to i64
  store i64 %21, ptr %19, align 8, !tbaa !70
  %22 = load i32, ptr %18, align 4, !tbaa !44
  %23 = getelementptr inbounds i8, ptr %1, i64 -4
  %24 = load i32, ptr %23, align 4, !tbaa !44
  %25 = and i32 %24, 255
  %26 = icmp eq i32 %25, 50
  br i1 %26, label %27, label %33

27:                                               ; preds = %2
  %28 = lshr i32 %24, 16
  %29 = zext nneg i32 %28 to i64
  %30 = getelementptr i32, ptr %1, i64 %29
  %31 = getelementptr i8, ptr %30, i64 -131072
  %32 = load i32, ptr %31, align 4, !tbaa !44
  %.pre.i = and i32 %32, 255
  br label %33

33:                                               ; preds = %27, %2
  %.pre-phi.i = phi i32 [ %.pre.i, %27 ], [ %25, %2 ]
  %.0.i = phi i32 [ %32, %27 ], [ %24, %2 ]
  %34 = add nsw i32 %.pre-phi.i, -63
  %35 = tail call i32 @llvm.fshl.i32(i32 %34, i32 %34, i32 31)
  switch i32 %35, label %56 [
    i32 1, label %36
    i32 2, label %36
    i32 5, label %44
    i32 0, label %51
  ]

36:                                               ; preds = %33, %33
  %37 = lshr i32 %.0.i, 8
  %38 = and i32 %37, 255
  %39 = lshr i32 %.0.i, 16
  %40 = and i32 %39, 255
  %41 = add i32 %22, 1
  %42 = add i32 %41, %40
  %43 = add i32 %42, %38
  br label %cur_topslot.exit

44:                                               ; preds = %33
  %45 = lshr i32 %.0.i, 8
  %46 = and i32 %45, 255
  %47 = lshr i32 %.0.i, 16
  %48 = add i32 %22, -1
  %49 = add i32 %48, %47
  %50 = add i32 %49, %46
  br label %cur_topslot.exit

51:                                               ; preds = %33
  %52 = lshr i32 %.0.i, 8
  %53 = and i32 %52, 255
  %54 = add i32 %22, -1
  %55 = add i32 %54, %53
  br label %cur_topslot.exit

56:                                               ; preds = %33
  %57 = getelementptr inbounds i8, ptr %13, i64 -93
  %58 = load i8, ptr %57, align 1, !tbaa !71
  %59 = zext i8 %58 to i32
  br label %cur_topslot.exit

cur_topslot.exit:                                 ; preds = %36, %44, %51, %56
  %.014.i = phi i32 [ %59, %56 ], [ %55, %51 ], [ %50, %44 ], [ %43, %36 ]
  %60 = zext i32 %.014.i to i64
  %61 = getelementptr inbounds nuw %union.TValue, ptr %6, i64 %60
  %62 = getelementptr inbounds nuw i8, ptr %0, i64 40
  store ptr %61, ptr %62, align 8, !tbaa !57
  tail call void @lj_profile_interpreter(ptr noundef nonnull %0) #12
  store i64 %20, ptr %19, align 8, !tbaa !70
  %63 = getelementptr inbounds nuw i8, ptr %0, i64 16
  %64 = load i64, ptr %63, align 8, !tbaa !54
  %65 = inttoptr i64 %64 to ptr
  %66 = ptrtoint ptr %0 to i64
  %67 = getelementptr inbounds nuw i8, ptr %65, i64 368
  store i64 %66, ptr %67, align 8, !tbaa !80
  %68 = getelementptr inbounds nuw i8, ptr %65, i64 184
  store volatile i32 -1, ptr %68, align 8, !tbaa !86
  store i32 %4, ptr %3, align 4, !tbaa !44
  ret void
}